target datalayout = "e-m:e-p270:32:32-p271:32:32-p272:64:64-i64:64-i128:128-f80:128-n8:16:32:64-S128"
target triple = "x86_64-pc-linux-gnu"

%struct.FT_MM_Var_ = type { i32, i32, i32, ptr, ptr }

; Function Attrs: nounwind uwtable
define i32 @FT_Get_Var_Axis_Flags(ptr noundef %0, i32 noundef %1, ptr noundef %2) #0 {
  %4 = alloca i32, align 4
  %5 = alloca ptr, align 8
  %6 = alloca i32, align 4
  %7 = alloca ptr, align 8
  %8 = alloca ptr, align 8
  store ptr %0, ptr %5, align 8
  store i32 %1, ptr %6, align 4
  store ptr %2, ptr %7, align 8
  %9 = load ptr, ptr %5, align 8
  %10 = icmp ne ptr %9, null
  br i1 %10, label %11, label %14

11:                                               ; preds = %3
  %12 = load ptr, ptr %7, align 8
  %13 = icmp ne ptr %12, null
  br i1 %13, label %15, label %14

14:                                               ; preds = %11, %3
  store i32 6, ptr %4, align 4
  br label %32

15:                                               ; preds = %11
  %16 = load i32, ptr %6, align 4
  %17 = load ptr, ptr %5, align 8
  %18 = getelementptr inbounds %struct.FT_MM_Var_, ptr %17, i32 0, i32 0
  %19 = load i32, ptr %18, align 8
  %20 = icmp uge i32 %16, %19
  br i1 %20, label %21, label %22

21:                                               ; preds = %15
  store i32 6, ptr %4, align 4
  br label %32

22:                                               ; preds = %15
  %23 = load ptr, ptr %5, align 8
  %24 = getelementptr inbounds %struct.FT_MM_Var_, ptr %23, i64 1
  store ptr %24, ptr %8, align 8
  %25 = load ptr, ptr %8, align 8
  %26 = load i32, ptr %6, align 4
  %27 = zext i32 %26 to i64
  %28 = getelementptr inbounds i16, ptr %25, i64 %27
  %29 = load i16, ptr %28, align 2
  %30 = zext i16 %29 to i32
  %31 = load ptr, ptr %7, align 8
  store i32 %30, ptr %31, align 4
  store i32 0, ptr %4, align 4
  br label %32

32:                                               ; preds = %22, %21, %14
  %33 = load i32, ptr %4, align 4
  ret i32 %33
}