; Function Attrs: mustprogress nofree norecurse nosync nounwind willreturn memory(argmem: readwrite) uwtable
define range(i32 0, 7) i32 @FT_Get_Var_Axis_Flags(ptr noundef readonly %0, i32 noundef %1, ptr noundef writeonly %2) local_unnamed_addr #2 {
  %4 = icmp ne ptr %0, null
  %5 = icmp ne ptr %2, null
  %or.cond = and i1 %4, %5
  br i1 %or.cond, label %6, label %14

6:                                                ; preds = %3
  %7 = load i32, ptr %0, align 8
  %.not = icmp ugt i32 %7, %1
  br i1 %.not, label %8, label %14

8:                                                ; preds = %6
  %9 = getelementptr inbounds i8, ptr %0, i64 32
  %10 = zext i32 %1 to i64
  %11 = getelementptr inbounds i16, ptr %9, i64 %10
  %12 = load i16, ptr %11, align 2
  %13 = zext i16 %12 to i32
  store i32 %13, ptr %2, align 4
  br label %14

14:                                               ; preds = %6, %3, %8
  %.0 = phi i32 [ 0, %8 ], [ 6, %3 ], [ 6, %6 ]
  ret i32 %.0
}